target datalayout = "e-m:e-p270:32:32-p271:32:32-p272:64:64-i64:64-i128:128-f80:128-n8:16:32:64-S128"
target triple = "x86_64-pc-linux-gnu"

%struct.IPAddressFamily_st = type { ptr, ptr }
%struct.IPAddressChoice_st = type { i32, %union.anon }
%union.anon = type { ptr }

@IPAddressOrRange_it.local_it = internal constant { i8, [7 x i8], i64, ptr, i64, ptr, i64, ptr } { i8 2, [7 x i8] zeroinitializer, i64 0, ptr @IPAddressOrRange_ch_tt, i64 2, ptr null, i64 16, ptr @.str.1 }, align 8

; Function Attrs: nounwind uwtable
define ptr @IPAddressOrRange_it() #0 {
  ret ptr @IPAddressOrRange_it.local_it
}

; Function Attrs: inlinehint nounwind uwtable
define internal ptr @ossl_check_IPAddressOrRange_compfunc_type(ptr noundef %0) #3 {
  %2 = alloca ptr, align 8
  store ptr %0, ptr %2, align 8, !tbaa !68
  %3 = load ptr, ptr %2, align 8, !tbaa !68
  ret ptr %3
}

; Function Attrs: nounwind uwtable
define void @IPAddressOrRange_free(ptr noundef %0) #0 {
  %2 = alloca ptr, align 8
  store ptr %0, ptr %2, align 8, !tbaa !16
  %3 = load ptr, ptr %2, align 8, !tbaa !16
  %4 = call ptr @IPAddressOrRange_it()
  call void @ASN1_item_free(ptr noundef %3, ptr noundef %4)
  ret void
}

; Function Attrs: inlinehint nounwind uwtable
define internal ptr @ossl_check_IPAddressOrRange_type(ptr noundef %0) #3 {
  %2 = alloca ptr, align 8
  store ptr %0, ptr %2, align 8, !tbaa !16
  %3 = load ptr, ptr %2, align 8, !tbaa !16
  ret ptr %3
}

; Function Attrs: inlinehint nounwind uwtable
define internal ptr @ossl_check_IPAddressOrRange_sk_type(ptr noundef %0) #3 {
  %2 = alloca ptr, align 8
  store ptr %0, ptr %2, align 8, !tbaa !46
  %3 = load ptr, ptr %2, align 8, !tbaa !46
  ret ptr %3
}

; Function Attrs: nounwind uwtable
define internal i32 @length_from_afi(i32 noundef %0) #0 {
  %2 = alloca i32, align 4
  %3 = alloca i32, align 4
  store i32 %0, ptr %3, align 4, !tbaa !37
  %4 = load i32, ptr %3, align 4, !tbaa !37
  switch i32 %4, label %7 [
    i32 1, label %5
    i32 2, label %6
  ]

5:                                                ; preds = %1
  store i32 4, ptr %2, align 4
  br label %8

6:                                                ; preds = %1
  store i32 16, ptr %2, align 4
  br label %8

7:                                                ; preds = %1
  store i32 0, ptr %2, align 4
  br label %8

8:                                                ; preds = %7, %6, %5
  %9 = load i32, ptr %2, align 4
  ret i32 %9
}

; Function Attrs: nounwind uwtable
define internal ptr @make_prefix_or_range(ptr noundef %0, i32 noundef %1, ptr noundef %2) #0 {
  %4 = alloca ptr, align 8
  %5 = alloca ptr, align 8
  %6 = alloca i32, align 4
  %7 = alloca ptr, align 8
  %8 = alloca ptr, align 8
  %9 = alloca ptr, align 8
  %10 = alloca i32, align 4
  store ptr %0, ptr %5, align 8, !tbaa !35
  store i32 %1, ptr %6, align 4, !tbaa !37
  store ptr %2, ptr %7, align 8, !tbaa !38
  call void @llvm.lifetime.start.p0(i64 8, ptr %8) #9
  %11 = load ptr, ptr %5, align 8, !tbaa !35
  %12 = load i32, ptr %6, align 4, !tbaa !37
  %13 = load ptr, ptr %7, align 8, !tbaa !38
  %14 = call ptr @make_IPAddressFamily(ptr noundef %11, i32 noundef %12, ptr noundef %13)
  store ptr %14, ptr %8, align 8, !tbaa !24
  call void @llvm.lifetime.start.p0(i64 8, ptr %9) #9
  store ptr null, ptr %9, align 8, !tbaa !46
  %15 = load ptr, ptr %8, align 8, !tbaa !24
  %16 = icmp eq ptr %15, null
  br i1 %16, label %36, label %17

17:                                               ; preds = %3
  %18 = load ptr, ptr %8, align 8, !tbaa !24
  %19 = getelementptr inbounds nuw %struct.IPAddressFamily_st, ptr %18, i32 0, i32 1
  %20 = load ptr, ptr %19, align 8, !tbaa !40
  %21 = icmp eq ptr %20, null
  br i1 %21, label %36, label %22

22:                                               ; preds = %17
  %23 = load ptr, ptr %8, align 8, !tbaa !24
  %24 = getelementptr inbounds nuw %struct.IPAddressFamily_st, ptr %23, i32 0, i32 1
  %25 = load ptr, ptr %24, align 8, !tbaa !40
  %26 = getelementptr inbounds nuw %struct.IPAddressChoice_st, ptr %25, i32 0, i32 0
  %27 = load i32, ptr %26, align 8, !tbaa !41
  %28 = icmp eq i32 %27, 0
  br i1 %28, label %29, label %37

29:                                               ; preds = %22
  %30 = load ptr, ptr %8, align 8, !tbaa !24
  %31 = getelementptr inbounds nuw %struct.IPAddressFamily_st, ptr %30, i32 0, i32 1
  %32 = load ptr, ptr %31, align 8, !tbaa !40
  %33 = getelementptr inbounds nuw %struct.IPAddressChoice_st, ptr %32, i32 0, i32 1
  %34 = load ptr, ptr %33, align 8, !tbaa !34
  %35 = icmp ne ptr %34, null
  br i1 %35, label %36, label %37

36:                                               ; preds = %29, %17, %3
  store ptr null, ptr %4, align 8
  store i32 1, ptr %10, align 4
  br label %82

37:                                               ; preds = %29, %22
  %38 = load ptr, ptr %8, align 8, !tbaa !24
  %39 = getelementptr inbounds nuw %struct.IPAddressFamily_st, ptr %38, i32 0, i32 1
  %40 = load ptr, ptr %39, align 8, !tbaa !40
  %41 = getelementptr inbounds nuw %struct.IPAddressChoice_st, ptr %40, i32 0, i32 0
  %42 = load i32, ptr %41, align 8, !tbaa !41
  %43 = icmp eq i32 %42, 1
  br i1 %43, label %44, label %50

44:                                               ; preds = %37
  %45 = load ptr, ptr %8, align 8, !tbaa !24
  %46 = getelementptr inbounds nuw %struct.IPAddressFamily_st, ptr %45, i32 0, i32 1
  %47 = load ptr, ptr %46, align 8, !tbaa !40
  %48 = getelementptr inbounds nuw %struct.IPAddressChoice_st, ptr %47, i32 0, i32 1
  %49 = load ptr, ptr %48, align 8, !tbaa !34
  store ptr %49, ptr %9, align 8, !tbaa !46
  br label %50

50:                                               ; preds = %44, %37
  %51 = load ptr, ptr %9, align 8, !tbaa !46
  %52 = icmp ne ptr %51, null
  br i1 %52, label %53, label %55

53:                                               ; preds = %50
  %54 = load ptr, ptr %9, align 8, !tbaa !46
  store ptr %54, ptr %4, align 8
  store i32 1, ptr %10, align 4
  br label %82

55:                                               ; preds = %50
  %56 = call ptr @OPENSSL_sk_new_null()
  store ptr %56, ptr %9, align 8, !tbaa !46
  %57 = icmp eq ptr %56, null
  br i1 %57, label %58, label %59

58:                                               ; preds = %55
  store ptr null, ptr %4, align 8
  store i32 1, ptr %10, align 4
  br label %82

59:                                               ; preds = %55
  %60 = load i32, ptr %6, align 4, !tbaa !37
  switch i32 %60, label %71 [
    i32 1, label %61
    i32 2, label %66
  ]

61:                                               ; preds = %59
  %62 = load ptr, ptr %9, align 8, !tbaa !46
  %63 = call ptr @ossl_check_IPAddressOrRange_sk_type(ptr noundef %62)
  %64 = call ptr @ossl_check_IPAddressOrRange_compfunc_type(ptr noundef @v4IPAddressOrRange_cmp)
  %65 = call ptr @OPENSSL_sk_set_cmp_func(ptr noundef %63, ptr noundef %64)
  br label %71

66:                                               ; preds = %59
  %67 = load ptr, ptr %9, align 8, !tbaa !46
  %68 = call ptr @ossl_check_IPAddressOrRange_sk_type(ptr noundef %67)
  %69 = call ptr @ossl_check_IPAddressOrRange_compfunc_type(ptr noundef @v6IPAddressOrRange_cmp)
  %70 = call ptr @OPENSSL_sk_set_cmp_func(ptr noundef %68, ptr noundef %69)
  br label %71

71:                                               ; preds = %59, %66, %61
  %72 = load ptr, ptr %8, align 8, !tbaa !24
  %73 = getelementptr inbounds nuw %struct.IPAddressFamily_st, ptr %72, i32 0, i32 1
  %74 = load ptr, ptr %73, align 8, !tbaa !40
  %75 = getelementptr inbounds nuw %struct.IPAddressChoice_st, ptr %74, i32 0, i32 0
  store i32 1, ptr %75, align 8, !tbaa !41
  %76 = load ptr, ptr %9, align 8, !tbaa !46
  %77 = load ptr, ptr %8, align 8, !tbaa !24
  %78 = getelementptr inbounds nuw %struct.IPAddressFamily_st, ptr %77, i32 0, i32 1
  %79 = load ptr, ptr %78, align 8, !tbaa !40
  %80 = getelementptr inbounds nuw %struct.IPAddressChoice_st, ptr %79, i32 0, i32 1
  store ptr %76, ptr %80, align 8, !tbaa !34
  %81 = load ptr, ptr %9, align 8, !tbaa !46
  store ptr %81, ptr %4, align 8
  store i32 1, ptr %10, align 4
  br label %82

82:                                               ; preds = %71, %58, %53, %36
  call void @llvm.lifetime.end.p0(i64 8, ptr %9) #9
  call void @llvm.lifetime.end.p0(i64 8, ptr %8) #9
  %83 = load ptr, ptr %4, align 8
  ret ptr %83
}

; Function Attrs: nounwind uwtable
define i32 @X509v3_addr_add_prefix(ptr noundef %0, i32 noundef %1, ptr noundef %2, ptr noundef %3, i32 noundef %4) #0 {
  %6 = alloca i32, align 4
  %7 = alloca ptr, align 8
  %8 = alloca i32, align 4
  %9 = alloca ptr, align 8
  %10 = alloca ptr, align 8
  %11 = alloca i32, align 4
  %12 = alloca ptr, align 8
  %13 = alloca ptr, align 8
  %14 = alloca i32, align 4
  store ptr %0, ptr %7, align 8, !tbaa !35
  store i32 %1, ptr %8, align 4, !tbaa !37
  store ptr %2, ptr %9, align 8, !tbaa !38
  store ptr %3, ptr %10, align 8, !tbaa !45
  store i32 %4, ptr %11, align 4, !tbaa !37
  call void @llvm.lifetime.start.p0(i64 8, ptr %12) #9
  %15 = load ptr, ptr %7, align 8, !tbaa !35
  %16 = load i32, ptr %8, align 4, !tbaa !37
  %17 = load ptr, ptr %9, align 8, !tbaa !38
  %18 = call ptr @make_prefix_or_range(ptr noundef %15, i32 noundef %16, ptr noundef %17)
  store ptr %18, ptr %12, align 8, !tbaa !46
  call void @llvm.lifetime.start.p0(i64 8, ptr %13) #9
  %19 = load ptr, ptr %12, align 8, !tbaa !46
  %20 = icmp eq ptr %19, null
  br i1 %20, label %28, label %21

21:                                               ; preds = %5
  %22 = load ptr, ptr %10, align 8, !tbaa !45
  %23 = load i32, ptr %11, align 4, !tbaa !37
  %24 = load i32, ptr %8, align 4, !tbaa !37
  %25 = call i32 @length_from_afi(i32 noundef %24)
  %26 = call i32 @make_addressPrefix(ptr noundef %13, ptr noundef %22, i32 noundef %23, i32 noundef %25)
  %27 = icmp ne i32 %26, 0
  br i1 %27, label %29, label %28

28:                                               ; preds = %21, %5
  store i32 0, ptr %6, align 4
  store i32 1, ptr %14, align 4
  br label %39

29:                                               ; preds = %21
  %30 = load ptr, ptr %12, align 8, !tbaa !46
  %31 = call ptr @ossl_check_IPAddressOrRange_sk_type(ptr noundef %30)
  %32 = load ptr, ptr %13, align 8, !tbaa !16
  %33 = call ptr @ossl_check_IPAddressOrRange_type(ptr noundef %32)
  %34 = call i32 @OPENSSL_sk_push(ptr noundef %31, ptr noundef %33)
  %35 = icmp ne i32 %34, 0
  br i1 %35, label %36, label %37

36:                                               ; preds = %29
  store i32 1, ptr %6, align 4
  store i32 1, ptr %14, align 4
  br label %39

37:                                               ; preds = %29
  %38 = load ptr, ptr %13, align 8, !tbaa !16
  call void @IPAddressOrRange_free(ptr noundef %38)
  store i32 0, ptr %6, align 4
  store i32 1, ptr %14, align 4
  br label %39

39:                                               ; preds = %37, %36, %28
  call void @llvm.lifetime.end.p0(i64 8, ptr %13) #9
  call void @llvm.lifetime.end.p0(i64 8, ptr %12) #9
  %40 = load i32, ptr %6, align 4
  ret i32 %40
}